; Function Attrs: nofree norecurse nosync nounwind memory(argmem: readwrite) uwtable
define internal void @avg_pixels8x8_c(ptr noundef captures(none) %0, ptr noundef readonly captures(none) %1, i64 noundef %2, i32 %3) #1 {
  br label %5

5:                                                ; preds = %4, %5
  %.015 = phi i32 [ 0, %4 ], [ %24, %5 ]
  %.01114 = phi ptr [ %0, %4 ], [ %23, %5 ]
  %.01213 = phi ptr [ %1, %4 ], [ %22, %5 ]
  %6 = load i32, ptr %.01114, align 4, !tbaa !54
  %7 = load i32, ptr %.01213, align 1, !tbaa !40
  %8 = or i32 %7, %6
  %9 = xor i32 %7, %6
  %10 = lshr i32 %9, 1
  %11 = and i32 %10, 2139062143
  %12 = sub i32 %8, %11
  store i32 %12, ptr %.01114, align 4, !tbaa !54
  %13 = getelementptr inbounds nuw i8, ptr %.01114, i64 4
  %14 = load i32, ptr %13, align 4, !tbaa !54
  %15 = getelementptr inbounds nuw i8, ptr %.01213, i64 4
  %16 = load i32, ptr %15, align 1, !tbaa !40
  %17 = or i32 %16, %14
  %18 = xor i32 %16, %14
  %19 = lshr i32 %18, 1
  %20 = and i32 %19, 2139062143
  %21 = sub i32 %17, %20
  store i32 %21, ptr %13, align 4, !tbaa !54
  %22 = getelementptr inbounds i8, ptr %.01213, i64 %2
  %23 = getelementptr inbounds i8, ptr %.01114, i64 %2
  %24 = add nuw nsw i32 %.015, 1
  %exitcond.not = icmp eq i32 %24, 8
  br i1 %exitcond.not, label %25, label %5, !llvm.loop !59

25:                                               ; preds = %5
  ret void
}